
naughty_list:     file format elf64-x86-64


Disassembly of section .init:

0000000000400740 <_init>:
  400740:	48 83 ec 08          	sub    $0x8,%rsp
  400744:	48 8b 05 ad 18 20 00 	mov    0x2018ad(%rip),%rax        # 601ff8 <__gmon_start__>
  40074b:	48 85 c0             	test   %rax,%rax
  40074e:	74 02                	je     400752 <_init+0x12>
  400750:	ff d0                	callq  *%rax
  400752:	48 83 c4 08          	add    $0x8,%rsp
  400756:	c3                   	retq   

Disassembly of section .plt:

0000000000400760 <.plt>:
  400760:	ff 35 0a 18 20 00    	pushq  0x20180a(%rip)        # 601f70 <_GLOBAL_OFFSET_TABLE_+0x8>
  400766:	ff 25 0c 18 20 00    	jmpq   *0x20180c(%rip)        # 601f78 <_GLOBAL_OFFSET_TABLE_+0x10>
  40076c:	0f 1f 40 00          	nopl   0x0(%rax)

0000000000400770 <toupper@plt>:
  400770:	ff 25 0a 18 20 00    	jmpq   *0x20180a(%rip)        # 601f80 <toupper@GLIBC_2.2.5>
  400776:	68 00 00 00 00       	pushq  $0x0
  40077b:	e9 e0 ff ff ff       	jmpq   400760 <.plt>

0000000000400780 <puts@plt>:
  400780:	ff 25 02 18 20 00    	jmpq   *0x201802(%rip)        # 601f88 <puts@GLIBC_2.2.5>
  400786:	68 01 00 00 00       	pushq  $0x1
  40078b:	e9 d0 ff ff ff       	jmpq   400760 <.plt>

0000000000400790 <strlen@plt>:
  400790:	ff 25 fa 17 20 00    	jmpq   *0x2017fa(%rip)        # 601f90 <strlen@GLIBC_2.2.5>
  400796:	68 02 00 00 00       	pushq  $0x2
  40079b:	e9 c0 ff ff ff       	jmpq   400760 <.plt>

00000000004007a0 <printf@plt>:
  4007a0:	ff 25 f2 17 20 00    	jmpq   *0x2017f2(%rip)        # 601f98 <printf@GLIBC_2.2.5>
  4007a6:	68 03 00 00 00       	pushq  $0x3
  4007ab:	e9 b0 ff ff ff       	jmpq   400760 <.plt>

00000000004007b0 <memset@plt>:
  4007b0:	ff 25 ea 17 20 00    	jmpq   *0x2017ea(%rip)        # 601fa0 <memset@GLIBC_2.2.5>
  4007b6:	68 04 00 00 00       	pushq  $0x4
  4007bb:	e9 a0 ff ff ff       	jmpq   400760 <.plt>

00000000004007c0 <abs@plt>:
  4007c0:	ff 25 e2 17 20 00    	jmpq   *0x2017e2(%rip)        # 601fa8 <abs@GLIBC_2.2.5>
  4007c6:	68 05 00 00 00       	pushq  $0x5
  4007cb:	e9 90 ff ff ff       	jmpq   400760 <.plt>

00000000004007d0 <read@plt>:
  4007d0:	ff 25 da 17 20 00    	jmpq   *0x2017da(%rip)        # 601fb0 <read@GLIBC_2.2.5>
  4007d6:	68 06 00 00 00       	pushq  $0x6
  4007db:	e9 80 ff ff ff       	jmpq   400760 <.plt>

00000000004007e0 <srand@plt>:
  4007e0:	ff 25 d2 17 20 00    	jmpq   *0x2017d2(%rip)        # 601fb8 <srand@GLIBC_2.2.5>
  4007e6:	68 07 00 00 00       	pushq  $0x7
  4007eb:	e9 70 ff ff ff       	jmpq   400760 <.plt>

00000000004007f0 <strcmp@plt>:
  4007f0:	ff 25 ca 17 20 00    	jmpq   *0x2017ca(%rip)        # 601fc0 <strcmp@GLIBC_2.2.5>
  4007f6:	68 08 00 00 00       	pushq  $0x8
  4007fb:	e9 60 ff ff ff       	jmpq   400760 <.plt>

0000000000400800 <time@plt>:
  400800:	ff 25 c2 17 20 00    	jmpq   *0x2017c2(%rip)        # 601fc8 <time@GLIBC_2.2.5>
  400806:	68 09 00 00 00       	pushq  $0x9
  40080b:	e9 50 ff ff ff       	jmpq   400760 <.plt>

0000000000400810 <setvbuf@plt>:
  400810:	ff 25 ba 17 20 00    	jmpq   *0x2017ba(%rip)        # 601fd0 <setvbuf@GLIBC_2.2.5>
  400816:	68 0a 00 00 00       	pushq  $0xa
  40081b:	e9 40 ff ff ff       	jmpq   400760 <.plt>

0000000000400820 <__isoc99_scanf@plt>:
  400820:	ff 25 b2 17 20 00    	jmpq   *0x2017b2(%rip)        # 601fd8 <__isoc99_scanf@GLIBC_2.7>
  400826:	68 0b 00 00 00       	pushq  $0xb
  40082b:	e9 30 ff ff ff       	jmpq   400760 <.plt>

0000000000400830 <fwrite@plt>:
  400830:	ff 25 aa 17 20 00    	jmpq   *0x2017aa(%rip)        # 601fe0 <fwrite@GLIBC_2.2.5>
  400836:	68 0c 00 00 00       	pushq  $0xc
  40083b:	e9 20 ff ff ff       	jmpq   400760 <.plt>

0000000000400840 <rand@plt>:
  400840:	ff 25 a2 17 20 00    	jmpq   *0x2017a2(%rip)        # 601fe8 <rand@GLIBC_2.2.5>
  400846:	68 0d 00 00 00       	pushq  $0xd
  40084b:	e9 10 ff ff ff       	jmpq   400760 <.plt>

Disassembly of section .text:

0000000000400850 <_start>:
  400850:	31 ed                	xor    %ebp,%ebp
  400852:	49 89 d1             	mov    %rdx,%r9
  400855:	5e                   	pop    %rsi
  400856:	48 89 e2             	mov    %rsp,%rdx
  400859:	48 83 e4 f0          	and    $0xfffffffffffffff0,%rsp
  40085d:	50                   	push   %rax
  40085e:	54                   	push   %rsp
  40085f:	49 c7 c0 50 14 40 00 	mov    $0x401450,%r8
  400866:	48 c7 c1 e0 13 40 00 	mov    $0x4013e0,%rcx
  40086d:	48 c7 c7 af 13 40 00 	mov    $0x4013af,%rdi
  400874:	ff 15 76 17 20 00    	callq  *0x201776(%rip)        # 601ff0 <__libc_start_main@GLIBC_2.2.5>
  40087a:	f4                   	hlt    
  40087b:	0f 1f 44 00 00       	nopl   0x0(%rax,%rax,1)

0000000000400880 <_dl_relocate_static_pie>:
  400880:	f3 c3                	repz retq 
  400882:	66 2e 0f 1f 84 00 00 	nopw   %cs:0x0(%rax,%rax,1)
  400889:	00 00 00 
  40088c:	0f 1f 40 00          	nopl   0x0(%rax)

0000000000400890 <deregister_tm_clones>:
  400890:	55                   	push   %rbp
  400891:	b8 50 20 60 00       	mov    $0x602050,%eax
  400896:	48 3d 50 20 60 00    	cmp    $0x602050,%rax
  40089c:	48 89 e5             	mov    %rsp,%rbp
  40089f:	74 17                	je     4008b8 <deregister_tm_clones+0x28>
  4008a1:	b8 00 00 00 00       	mov    $0x0,%eax
  4008a6:	48 85 c0             	test   %rax,%rax
  4008a9:	74 0d                	je     4008b8 <deregister_tm_clones+0x28>
  4008ab:	5d                   	pop    %rbp
  4008ac:	bf 50 20 60 00       	mov    $0x602050,%edi
  4008b1:	ff e0                	jmpq   *%rax
  4008b3:	0f 1f 44 00 00       	nopl   0x0(%rax,%rax,1)
  4008b8:	5d                   	pop    %rbp
  4008b9:	c3                   	retq   
  4008ba:	66 0f 1f 44 00 00    	nopw   0x0(%rax,%rax,1)

00000000004008c0 <register_tm_clones>:
  4008c0:	be 50 20 60 00       	mov    $0x602050,%esi
  4008c5:	55                   	push   %rbp
  4008c6:	48 81 ee 50 20 60 00 	sub    $0x602050,%rsi
  4008cd:	48 89 e5             	mov    %rsp,%rbp
  4008d0:	48 c1 fe 03          	sar    $0x3,%rsi
  4008d4:	48 89 f0             	mov    %rsi,%rax
  4008d7:	48 c1 e8 3f          	shr    $0x3f,%rax
  4008db:	48 01 c6             	add    %rax,%rsi
  4008de:	48 d1 fe             	sar    %rsi
  4008e1:	74 15                	je     4008f8 <register_tm_clones+0x38>
  4008e3:	b8 00 00 00 00       	mov    $0x0,%eax
  4008e8:	48 85 c0             	test   %rax,%rax
  4008eb:	74 0b                	je     4008f8 <register_tm_clones+0x38>
  4008ed:	5d                   	pop    %rbp
  4008ee:	bf 50 20 60 00       	mov    $0x602050,%edi
  4008f3:	ff e0                	jmpq   *%rax
  4008f5:	0f 1f 00             	nopl   (%rax)
  4008f8:	5d                   	pop    %rbp
  4008f9:	c3                   	retq   
  4008fa:	66 0f 1f 44 00 00    	nopw   0x0(%rax,%rax,1)

0000000000400900 <__do_global_dtors_aux>:
  400900:	80 3d 71 17 20 00 00 	cmpb   $0x0,0x201771(%rip)        # 602078 <completed.7698>
  400907:	75 17                	jne    400920 <__do_global_dtors_aux+0x20>
  400909:	55                   	push   %rbp
  40090a:	48 89 e5             	mov    %rsp,%rbp
  40090d:	e8 7e ff ff ff       	callq  400890 <deregister_tm_clones>
  400912:	c6 05 5f 17 20 00 01 	movb   $0x1,0x20175f(%rip)        # 602078 <completed.7698>
  400919:	5d                   	pop    %rbp
  40091a:	c3                   	retq   
  40091b:	0f 1f 44 00 00       	nopl   0x0(%rax,%rax,1)
  400920:	f3 c3                	repz retq 
  400922:	0f 1f 40 00          	nopl   0x0(%rax)
  400926:	66 2e 0f 1f 84 00 00 	nopw   %cs:0x0(%rax,%rax,1)
  40092d:	00 00 00 

0000000000400930 <frame_dummy>:
  400930:	55                   	push   %rbp
  400931:	48 89 e5             	mov    %rsp,%rbp
  400934:	5d                   	pop    %rbp
  400935:	eb 89                	jmp    4008c0 <register_tm_clones>

0000000000400937 <reset>:
  400937:	55                   	push   %rbp
  400938:	48 89 e5             	mov    %rsp,%rbp
  40093b:	48 8d 3d 26 0b 00 00 	lea    0xb26(%rip),%rdi        # 401468 <_IO_stdin_used+0x8>
  400942:	b8 00 00 00 00       	mov    $0x0,%eax
  400947:	e8 54 fe ff ff       	callq  4007a0 <printf@plt>
  40094c:	90                   	nop
  40094d:	5d                   	pop    %rbp
  40094e:	c3                   	retq   

000000000040094f <rainbow>:
  40094f:	55                   	push   %rbp
  400950:	48 89 e5             	mov    %rsp,%rbp
  400953:	48 81 ec f0 00 00 00 	sub    $0xf0,%rsp
  40095a:	48 89 bd 18 ff ff ff 	mov    %rdi,-0xe8(%rbp)
  400961:	48 89 b5 58 ff ff ff 	mov    %rsi,-0xa8(%rbp)
  400968:	48 89 95 60 ff ff ff 	mov    %rdx,-0xa0(%rbp)
  40096f:	48 89 8d 68 ff ff ff 	mov    %rcx,-0x98(%rbp)
  400976:	4c 89 85 70 ff ff ff 	mov    %r8,-0x90(%rbp)
  40097d:	4c 89 8d 78 ff ff ff 	mov    %r9,-0x88(%rbp)
  400984:	84 c0                	test   %al,%al
  400986:	74 20                	je     4009a8 <rainbow+0x59>
  400988:	0f 29 45 80          	movaps %xmm0,-0x80(%rbp)
  40098c:	0f 29 4d 90          	movaps %xmm1,-0x70(%rbp)
  400990:	0f 29 55 a0          	movaps %xmm2,-0x60(%rbp)
  400994:	0f 29 5d b0          	movaps %xmm3,-0x50(%rbp)
  400998:	0f 29 65 c0          	movaps %xmm4,-0x40(%rbp)
  40099c:	0f 29 6d d0          	movaps %xmm5,-0x30(%rbp)
  4009a0:	0f 29 75 e0          	movaps %xmm6,-0x20(%rbp)
  4009a4:	0f 29 7d f0          	movaps %xmm7,-0x10(%rbp)
  4009a8:	c7 85 4c ff ff ff 00 	movl   $0x0,-0xb4(%rbp)
  4009af:	00 00 00 
  4009b2:	c7 85 28 ff ff ff 08 	movl   $0x8,-0xd8(%rbp)
  4009b9:	00 00 00 
  4009bc:	c7 85 2c ff ff ff 30 	movl   $0x30,-0xd4(%rbp)
  4009c3:	00 00 00 
  4009c6:	48 8d 45 10          	lea    0x10(%rbp),%rax
  4009ca:	48 89 85 30 ff ff ff 	mov    %rax,-0xd0(%rbp)
  4009d1:	48 8d 85 50 ff ff ff 	lea    -0xb0(%rbp),%rax
  4009d8:	48 89 85 38 ff ff ff 	mov    %rax,-0xc8(%rbp)
  4009df:	8b 85 28 ff ff ff    	mov    -0xd8(%rbp),%eax
  4009e5:	83 f8 2f             	cmp    $0x2f,%eax
  4009e8:	77 23                	ja     400a0d <rainbow+0xbe>
  4009ea:	48 8b 85 38 ff ff ff 	mov    -0xc8(%rbp),%rax
  4009f1:	8b 95 28 ff ff ff    	mov    -0xd8(%rbp),%edx
  4009f7:	89 d2                	mov    %edx,%edx
  4009f9:	48 01 d0             	add    %rdx,%rax
  4009fc:	8b 95 28 ff ff ff    	mov    -0xd8(%rbp),%edx
  400a02:	83 c2 08             	add    $0x8,%edx
  400a05:	89 95 28 ff ff ff    	mov    %edx,-0xd8(%rbp)
  400a0b:	eb 12                	jmp    400a1f <rainbow+0xd0>
  400a0d:	48 8b 85 30 ff ff ff 	mov    -0xd0(%rbp),%rax
  400a14:	48 8d 50 08          	lea    0x8(%rax),%rdx
  400a18:	48 89 95 30 ff ff ff 	mov    %rdx,-0xd0(%rbp)
  400a1f:	8b 00                	mov    (%rax),%eax
  400a21:	89 85 44 ff ff ff    	mov    %eax,-0xbc(%rbp)
  400a27:	48 8b 85 18 ff ff ff 	mov    -0xe8(%rbp),%rax
  400a2e:	48 89 c7             	mov    %rax,%rdi
  400a31:	e8 5a fd ff ff       	callq  400790 <strlen@plt>
  400a36:	89 85 40 ff ff ff    	mov    %eax,-0xc0(%rbp)
  400a3c:	c7 85 48 ff ff ff 00 	movl   $0x0,-0xb8(%rbp)
  400a43:	00 00 00 
  400a46:	e9 51 01 00 00       	jmpq   400b9c <rainbow+0x24d>
  400a4b:	83 bd 4c ff ff ff 05 	cmpl   $0x5,-0xb4(%rbp)
  400a52:	0f 8f 91 00 00 00    	jg     400ae9 <rainbow+0x19a>
  400a58:	8b 05 1e 16 20 00    	mov    0x20161e(%rip),%eax        # 60207c <check>
  400a5e:	85 c0                	test   %eax,%eax
  400a60:	74 46                	je     400aa8 <rainbow+0x159>
  400a62:	48 8b 85 18 ff ff ff 	mov    -0xe8(%rbp),%rax
  400a69:	0f b6 00             	movzbl (%rax),%eax
  400a6c:	0f be c8             	movsbl %al,%ecx
  400a6f:	8b 85 4c ff ff ff    	mov    -0xb4(%rbp),%eax
  400a75:	48 98                	cltq   
  400a77:	48 8d 14 c5 00 00 00 	lea    0x0(,%rax,8),%rdx
  400a7e:	00 
  400a7f:	48 8d 05 9a 15 20 00 	lea    0x20159a(%rip),%rax        # 602020 <color_arr>
  400a86:	48 8b 14 02          	mov    (%rdx,%rax,1),%rdx
  400a8a:	8b 85 44 ff ff ff    	mov    -0xbc(%rbp),%eax
  400a90:	89 c6                	mov    %eax,%esi
  400a92:	48 8d 3d ec 09 00 00 	lea    0x9ec(%rip),%rdi        # 401485 <_IO_stdin_used+0x25>
  400a99:	b8 00 00 00 00       	mov    $0x0,%eax
  400a9e:	e8 fd fc ff ff       	callq  4007a0 <printf@plt>
  400aa3:	e9 d4 00 00 00       	jmpq   400b7c <rainbow+0x22d>
  400aa8:	48 8b 85 18 ff ff ff 	mov    -0xe8(%rbp),%rax
  400aaf:	0f b6 00             	movzbl (%rax),%eax
  400ab2:	0f be d0             	movsbl %al,%edx
  400ab5:	8b 85 4c ff ff ff    	mov    -0xb4(%rbp),%eax
  400abb:	48 98                	cltq   
  400abd:	48 8d 0c c5 00 00 00 	lea    0x0(,%rax,8),%rcx
  400ac4:	00 
  400ac5:	48 8d 05 54 15 20 00 	lea    0x201554(%rip),%rax        # 602020 <color_arr>
  400acc:	48 8b 04 01          	mov    (%rcx,%rax,1),%rax
  400ad0:	48 89 c6             	mov    %rax,%rsi
  400ad3:	48 8d 3d b7 09 00 00 	lea    0x9b7(%rip),%rdi        # 401491 <_IO_stdin_used+0x31>
  400ada:	b8 00 00 00 00       	mov    $0x0,%eax
  400adf:	e8 bc fc ff ff       	callq  4007a0 <printf@plt>
  400ae4:	e9 93 00 00 00       	jmpq   400b7c <rainbow+0x22d>
  400ae9:	c7 85 4c ff ff ff 00 	movl   $0x0,-0xb4(%rbp)
  400af0:	00 00 00 
  400af3:	8b 05 83 15 20 00    	mov    0x201583(%rip),%eax        # 60207c <check>
  400af9:	85 c0                	test   %eax,%eax
  400afb:	74 43                	je     400b40 <rainbow+0x1f1>
  400afd:	48 8b 85 18 ff ff ff 	mov    -0xe8(%rbp),%rax
  400b04:	0f b6 00             	movzbl (%rax),%eax
  400b07:	0f be c8             	movsbl %al,%ecx
  400b0a:	8b 85 4c ff ff ff    	mov    -0xb4(%rbp),%eax
  400b10:	48 98                	cltq   
  400b12:	48 8d 14 c5 00 00 00 	lea    0x0(,%rax,8),%rdx
  400b19:	00 
  400b1a:	48 8d 05 ff 14 20 00 	lea    0x2014ff(%rip),%rax        # 602020 <color_arr>
  400b21:	48 8b 14 02          	mov    (%rdx,%rax,1),%rdx
  400b25:	8b 85 44 ff ff ff    	mov    -0xbc(%rbp),%eax
  400b2b:	89 c6                	mov    %eax,%esi
  400b2d:	48 8d 3d 51 09 00 00 	lea    0x951(%rip),%rdi        # 401485 <_IO_stdin_used+0x25>
  400b34:	b8 00 00 00 00       	mov    $0x0,%eax
  400b39:	e8 62 fc ff ff       	callq  4007a0 <printf@plt>
  400b3e:	eb 3c                	jmp    400b7c <rainbow+0x22d>
  400b40:	48 8b 85 18 ff ff ff 	mov    -0xe8(%rbp),%rax
  400b47:	0f b6 00             	movzbl (%rax),%eax
  400b4a:	0f be d0             	movsbl %al,%edx
  400b4d:	8b 85 4c ff ff ff    	mov    -0xb4(%rbp),%eax
  400b53:	48 98                	cltq   
  400b55:	48 8d 0c c5 00 00 00 	lea    0x0(,%rax,8),%rcx
  400b5c:	00 
  400b5d:	48 8d 05 bc 14 20 00 	lea    0x2014bc(%rip),%rax        # 602020 <color_arr>
  400b64:	48 8b 04 01          	mov    (%rcx,%rax,1),%rax
  400b68:	48 89 c6             	mov    %rax,%rsi
  400b6b:	48 8d 3d 1f 09 00 00 	lea    0x91f(%rip),%rdi        # 401491 <_IO_stdin_used+0x31>
  400b72:	b8 00 00 00 00       	mov    $0x0,%eax
  400b77:	e8 24 fc ff ff       	callq  4007a0 <printf@plt>
  400b7c:	83 85 4c ff ff ff 01 	addl   $0x1,-0xb4(%rbp)
  400b83:	48 8b 85 18 ff ff ff 	mov    -0xe8(%rbp),%rax
  400b8a:	48 83 c0 01          	add    $0x1,%rax
  400b8e:	48 89 85 18 ff ff ff 	mov    %rax,-0xe8(%rbp)
  400b95:	83 85 48 ff ff ff 01 	addl   $0x1,-0xb8(%rbp)
  400b9c:	8b 85 48 ff ff ff    	mov    -0xb8(%rbp),%eax
  400ba2:	3b 85 40 ff ff ff    	cmp    -0xc0(%rbp),%eax
  400ba8:	0f 8c 9d fe ff ff    	jl     400a4b <rainbow+0xfc>
  400bae:	b8 00 00 00 00       	mov    $0x0,%eax
  400bb3:	e8 7f fd ff ff       	callq  400937 <reset>
  400bb8:	90                   	nop
  400bb9:	c9                   	leaveq 
  400bba:	c3                   	retq   

0000000000400bbb <color>:
  400bbb:	55                   	push   %rbp
  400bbc:	48 89 e5             	mov    %rsp,%rbp
  400bbf:	48 81 ec f0 00 00 00 	sub    $0xf0,%rsp
  400bc6:	48 89 bd 18 ff ff ff 	mov    %rdi,-0xe8(%rbp)
  400bcd:	48 89 b5 10 ff ff ff 	mov    %rsi,-0xf0(%rbp)
  400bd4:	48 89 95 60 ff ff ff 	mov    %rdx,-0xa0(%rbp)
  400bdb:	48 89 8d 68 ff ff ff 	mov    %rcx,-0x98(%rbp)
  400be2:	4c 89 85 70 ff ff ff 	mov    %r8,-0x90(%rbp)
  400be9:	4c 89 8d 78 ff ff ff 	mov    %r9,-0x88(%rbp)
  400bf0:	84 c0                	test   %al,%al
  400bf2:	74 20                	je     400c14 <color+0x59>
  400bf4:	0f 29 45 80          	movaps %xmm0,-0x80(%rbp)
  400bf8:	0f 29 4d 90          	movaps %xmm1,-0x70(%rbp)
  400bfc:	0f 29 55 a0          	movaps %xmm2,-0x60(%rbp)
  400c00:	0f 29 5d b0          	movaps %xmm3,-0x50(%rbp)
  400c04:	0f 29 65 c0          	movaps %xmm4,-0x40(%rbp)
  400c08:	0f 29 6d d0          	movaps %xmm5,-0x30(%rbp)
  400c0c:	0f 29 75 e0          	movaps %xmm6,-0x20(%rbp)
  400c10:	0f 29 7d f0          	movaps %xmm7,-0x10(%rbp)
  400c14:	c7 85 28 ff ff ff 10 	movl   $0x10,-0xd8(%rbp)
  400c1b:	00 00 00 
  400c1e:	c7 85 2c ff ff ff 30 	movl   $0x30,-0xd4(%rbp)
  400c25:	00 00 00 
  400c28:	48 8d 45 10          	lea    0x10(%rbp),%rax
  400c2c:	48 89 85 30 ff ff ff 	mov    %rax,-0xd0(%rbp)
  400c33:	48 8d 85 50 ff ff ff 	lea    -0xb0(%rbp),%rax
  400c3a:	48 89 85 38 ff ff ff 	mov    %rax,-0xc8(%rbp)
  400c41:	8b 85 28 ff ff ff    	mov    -0xd8(%rbp),%eax
  400c47:	83 f8 2f             	cmp    $0x2f,%eax
  400c4a:	77 23                	ja     400c6f <color+0xb4>
  400c4c:	48 8b 85 38 ff ff ff 	mov    -0xc8(%rbp),%rax
  400c53:	8b 95 28 ff ff ff    	mov    -0xd8(%rbp),%edx
  400c59:	89 d2                	mov    %edx,%edx
  400c5b:	48 01 d0             	add    %rdx,%rax
  400c5e:	8b 95 28 ff ff ff    	mov    -0xd8(%rbp),%edx
  400c64:	83 c2 08             	add    $0x8,%edx
  400c67:	89 95 28 ff ff ff    	mov    %edx,-0xd8(%rbp)
  400c6d:	eb 12                	jmp    400c81 <color+0xc6>
  400c6f:	48 8b 85 30 ff ff ff 	mov    -0xd0(%rbp),%rax
  400c76:	48 8d 50 08          	lea    0x8(%rax),%rdx
  400c7a:	48 89 95 30 ff ff ff 	mov    %rdx,-0xd0(%rbp)
  400c81:	48 8b 00             	mov    (%rax),%rax
  400c84:	48 89 85 40 ff ff ff 	mov    %rax,-0xc0(%rbp)
  400c8b:	48 8b 85 10 ff ff ff 	mov    -0xf0(%rbp),%rax
  400c92:	48 8d 35 01 08 00 00 	lea    0x801(%rip),%rsi        # 40149a <_IO_stdin_used+0x3a>
  400c99:	48 89 c7             	mov    %rax,%rdi
  400c9c:	e8 4f fb ff ff       	callq  4007f0 <strcmp@plt>
  400ca1:	85 c0                	test   %eax,%eax
  400ca3:	75 13                	jne    400cb8 <color+0xfd>
  400ca5:	48 8d 05 c1 07 00 00 	lea    0x7c1(%rip),%rax        # 40146d <_IO_stdin_used+0xd>
  400cac:	48 89 85 10 ff ff ff 	mov    %rax,-0xf0(%rbp)
  400cb3:	e9 0d 01 00 00       	jmpq   400dc5 <color+0x20a>
  400cb8:	48 8b 85 10 ff ff ff 	mov    -0xf0(%rbp),%rax
  400cbf:	48 8d 35 d8 07 00 00 	lea    0x7d8(%rip),%rsi        # 40149e <_IO_stdin_used+0x3e>
  400cc6:	48 89 c7             	mov    %rax,%rdi
  400cc9:	e8 22 fb ff ff       	callq  4007f0 <strcmp@plt>
  400cce:	85 c0                	test   %eax,%eax
  400cd0:	75 13                	jne    400ce5 <color+0x12a>
  400cd2:	48 8d 05 98 07 00 00 	lea    0x798(%rip),%rax        # 401471 <_IO_stdin_used+0x11>
  400cd9:	48 89 85 10 ff ff ff 	mov    %rax,-0xf0(%rbp)
  400ce0:	e9 e0 00 00 00       	jmpq   400dc5 <color+0x20a>
  400ce5:	48 8b 85 10 ff ff ff 	mov    -0xf0(%rbp),%rax
  400cec:	48 8d 35 b1 07 00 00 	lea    0x7b1(%rip),%rsi        # 4014a4 <_IO_stdin_used+0x44>
  400cf3:	48 89 c7             	mov    %rax,%rdi
  400cf6:	e8 f5 fa ff ff       	callq  4007f0 <strcmp@plt>
  400cfb:	85 c0                	test   %eax,%eax
  400cfd:	75 13                	jne    400d12 <color+0x157>
  400cff:	48 8d 05 6f 07 00 00 	lea    0x76f(%rip),%rax        # 401475 <_IO_stdin_used+0x15>
  400d06:	48 89 85 10 ff ff ff 	mov    %rax,-0xf0(%rbp)
  400d0d:	e9 b3 00 00 00       	jmpq   400dc5 <color+0x20a>
  400d12:	48 8b 85 10 ff ff ff 	mov    -0xf0(%rbp),%rax
  400d19:	48 8d 35 8b 07 00 00 	lea    0x78b(%rip),%rsi        # 4014ab <_IO_stdin_used+0x4b>
  400d20:	48 89 c7             	mov    %rax,%rdi
  400d23:	e8 c8 fa ff ff       	callq  4007f0 <strcmp@plt>
  400d28:	85 c0                	test   %eax,%eax
  400d2a:	75 13                	jne    400d3f <color+0x184>
  400d2c:	48 8d 05 46 07 00 00 	lea    0x746(%rip),%rax        # 401479 <_IO_stdin_used+0x19>
  400d33:	48 89 85 10 ff ff ff 	mov    %rax,-0xf0(%rbp)
  400d3a:	e9 86 00 00 00       	jmpq   400dc5 <color+0x20a>
  400d3f:	48 8b 85 10 ff ff ff 	mov    -0xf0(%rbp),%rax
  400d46:	48 8d 35 63 07 00 00 	lea    0x763(%rip),%rsi        # 4014b0 <_IO_stdin_used+0x50>
  400d4d:	48 89 c7             	mov    %rax,%rdi
  400d50:	e8 9b fa ff ff       	callq  4007f0 <strcmp@plt>
  400d55:	85 c0                	test   %eax,%eax
  400d57:	75 10                	jne    400d69 <color+0x1ae>
  400d59:	48 8d 05 1d 07 00 00 	lea    0x71d(%rip),%rax        # 40147d <_IO_stdin_used+0x1d>
  400d60:	48 89 85 10 ff ff ff 	mov    %rax,-0xf0(%rbp)
  400d67:	eb 5c                	jmp    400dc5 <color+0x20a>
  400d69:	48 8b 85 10 ff ff ff 	mov    -0xf0(%rbp),%rax
  400d70:	48 8d 35 41 07 00 00 	lea    0x741(%rip),%rsi        # 4014b8 <_IO_stdin_used+0x58>
  400d77:	48 89 c7             	mov    %rax,%rdi
  400d7a:	e8 71 fa ff ff       	callq  4007f0 <strcmp@plt>
  400d7f:	85 c0                	test   %eax,%eax
  400d81:	75 10                	jne    400d93 <color+0x1d8>
  400d83:	48 8d 05 f7 06 00 00 	lea    0x6f7(%rip),%rax        # 401481 <_IO_stdin_used+0x21>
  400d8a:	48 89 85 10 ff ff ff 	mov    %rax,-0xf0(%rbp)
  400d91:	eb 32                	jmp    400dc5 <color+0x20a>
  400d93:	48 8b 85 10 ff ff ff 	mov    -0xf0(%rbp),%rax
  400d9a:	48 8d 35 1c 07 00 00 	lea    0x71c(%rip),%rsi        # 4014bd <_IO_stdin_used+0x5d>
  400da1:	48 89 c7             	mov    %rax,%rdi
  400da4:	e8 47 fa ff ff       	callq  4007f0 <strcmp@plt>
  400da9:	85 c0                	test   %eax,%eax
  400dab:	75 0c                	jne    400db9 <color+0x1fe>
  400dad:	c7 05 c5 12 20 00 01 	movl   $0x1,0x2012c5(%rip)        # 60207c <check>
  400db4:	00 00 00 
  400db7:	eb 0c                	jmp    400dc5 <color+0x20a>
  400db9:	48 8d 3d 05 07 00 00 	lea    0x705(%rip),%rdi        # 4014c5 <_IO_stdin_used+0x65>
  400dc0:	e8 bb f9 ff ff       	callq  400780 <puts@plt>
  400dc5:	48 83 bd 40 ff ff ff 	cmpq   $0x0,-0xc0(%rbp)
  400dcc:	00 
  400dcd:	0f 84 39 01 00 00    	je     400f0c <color+0x351>
  400dd3:	48 8b 85 40 ff ff ff 	mov    -0xc0(%rbp),%rax
  400dda:	48 8d 35 f3 06 00 00 	lea    0x6f3(%rip),%rsi        # 4014d4 <_IO_stdin_used+0x74>
  400de1:	48 89 c7             	mov    %rax,%rdi
  400de4:	e8 07 fa ff ff       	callq  4007f0 <strcmp@plt>
  400de9:	85 c0                	test   %eax,%eax
  400deb:	75 0f                	jne    400dfc <color+0x241>
  400ded:	c7 85 4c ff ff ff 04 	movl   $0x4,-0xb4(%rbp)
  400df4:	00 00 00 
  400df7:	e9 bf 00 00 00       	jmpq   400ebb <color+0x300>
  400dfc:	48 8b 85 40 ff ff ff 	mov    -0xc0(%rbp),%rax
  400e03:	48 8d 35 d4 06 00 00 	lea    0x6d4(%rip),%rsi        # 4014de <_IO_stdin_used+0x7e>
  400e0a:	48 89 c7             	mov    %rax,%rdi
  400e0d:	e8 de f9 ff ff       	callq  4007f0 <strcmp@plt>
  400e12:	85 c0                	test   %eax,%eax
  400e14:	75 0f                	jne    400e25 <color+0x26a>
  400e16:	c7 85 4c ff ff ff 05 	movl   $0x5,-0xb4(%rbp)
  400e1d:	00 00 00 
  400e20:	e9 96 00 00 00       	jmpq   400ebb <color+0x300>
  400e25:	48 8b 85 40 ff ff ff 	mov    -0xc0(%rbp),%rax
  400e2c:	48 8d 35 b1 06 00 00 	lea    0x6b1(%rip),%rsi        # 4014e4 <_IO_stdin_used+0x84>
  400e33:	48 89 c7             	mov    %rax,%rdi
  400e36:	e8 b5 f9 ff ff       	callq  4007f0 <strcmp@plt>
  400e3b:	85 c0                	test   %eax,%eax
  400e3d:	75 0c                	jne    400e4b <color+0x290>
  400e3f:	c7 85 4c ff ff ff 06 	movl   $0x6,-0xb4(%rbp)
  400e46:	00 00 00 
  400e49:	eb 70                	jmp    400ebb <color+0x300>
  400e4b:	48 8b 85 40 ff ff ff 	mov    -0xc0(%rbp),%rax
  400e52:	48 8d 35 90 06 00 00 	lea    0x690(%rip),%rsi        # 4014e9 <_IO_stdin_used+0x89>
  400e59:	48 89 c7             	mov    %rax,%rdi
  400e5c:	e8 8f f9 ff ff       	callq  4007f0 <strcmp@plt>
  400e61:	85 c0                	test   %eax,%eax
  400e63:	75 0c                	jne    400e71 <color+0x2b6>
  400e65:	c7 85 4c ff ff ff 07 	movl   $0x7,-0xb4(%rbp)
  400e6c:	00 00 00 
  400e6f:	eb 4a                	jmp    400ebb <color+0x300>
  400e71:	48 8b 85 40 ff ff ff 	mov    -0xc0(%rbp),%rax
  400e78:	48 8d 35 75 06 00 00 	lea    0x675(%rip),%rsi        # 4014f4 <_IO_stdin_used+0x94>
  400e7f:	48 89 c7             	mov    %rax,%rdi
  400e82:	e8 69 f9 ff ff       	callq  4007f0 <strcmp@plt>
  400e87:	85 c0                	test   %eax,%eax
  400e89:	75 0c                	jne    400e97 <color+0x2dc>
  400e8b:	c7 85 4c ff ff ff 08 	movl   $0x8,-0xb4(%rbp)
  400e92:	00 00 00 
  400e95:	eb 24                	jmp    400ebb <color+0x300>
  400e97:	48 8b 85 40 ff ff ff 	mov    -0xc0(%rbp),%rax
  400e9e:	48 8d 35 56 06 00 00 	lea    0x656(%rip),%rsi        # 4014fb <_IO_stdin_used+0x9b>
  400ea5:	48 89 c7             	mov    %rax,%rdi
  400ea8:	e8 43 f9 ff ff       	callq  4007f0 <strcmp@plt>
  400ead:	85 c0                	test   %eax,%eax
  400eaf:	75 0a                	jne    400ebb <color+0x300>
  400eb1:	c7 85 4c ff ff ff 09 	movl   $0x9,-0xb4(%rbp)
  400eb8:	00 00 00 
  400ebb:	8b 05 bb 11 20 00    	mov    0x2011bb(%rip),%eax        # 60207c <check>
  400ec1:	85 c0                	test   %eax,%eax
  400ec3:	74 1e                	je     400ee3 <color+0x328>
  400ec5:	8b 95 4c ff ff ff    	mov    -0xb4(%rbp),%edx
  400ecb:	48 8b 85 18 ff ff ff 	mov    -0xe8(%rbp),%rax
  400ed2:	89 d6                	mov    %edx,%esi
  400ed4:	48 89 c7             	mov    %rax,%rdi
  400ed7:	b8 00 00 00 00       	mov    $0x0,%eax
  400edc:	e8 6e fa ff ff       	callq  40094f <rainbow>
  400ee1:	eb 73                	jmp    400f56 <color+0x39b>
  400ee3:	48 8b 8d 18 ff ff ff 	mov    -0xe8(%rbp),%rcx
  400eea:	48 8b 95 10 ff ff ff 	mov    -0xf0(%rbp),%rdx
  400ef1:	8b 85 4c ff ff ff    	mov    -0xb4(%rbp),%eax
  400ef7:	89 c6                	mov    %eax,%esi
  400ef9:	48 8d 3d 03 06 00 00 	lea    0x603(%rip),%rdi        # 401503 <_IO_stdin_used+0xa3>
  400f00:	b8 00 00 00 00       	mov    $0x0,%eax
  400f05:	e8 96 f8 ff ff       	callq  4007a0 <printf@plt>
  400f0a:	eb 4a                	jmp    400f56 <color+0x39b>
  400f0c:	8b 05 6a 11 20 00    	mov    0x20116a(%rip),%eax        # 60207c <check>
  400f12:	85 c0                	test   %eax,%eax
  400f14:	74 1e                	je     400f34 <color+0x379>
  400f16:	8b 95 4c ff ff ff    	mov    -0xb4(%rbp),%edx
  400f1c:	48 8b 85 18 ff ff ff 	mov    -0xe8(%rbp),%rax
  400f23:	89 d6                	mov    %edx,%esi
  400f25:	48 89 c7             	mov    %rax,%rdi
  400f28:	b8 00 00 00 00       	mov    $0x0,%eax
  400f2d:	e8 1d fa ff ff       	callq  40094f <rainbow>
  400f32:	eb 22                	jmp    400f56 <color+0x39b>
  400f34:	48 8b 95 18 ff ff ff 	mov    -0xe8(%rbp),%rdx
  400f3b:	48 8b 85 10 ff ff ff 	mov    -0xf0(%rbp),%rax
  400f42:	48 89 c6             	mov    %rax,%rsi
  400f45:	48 8d 3d c3 05 00 00 	lea    0x5c3(%rip),%rdi        # 40150f <_IO_stdin_used+0xaf>
  400f4c:	b8 00 00 00 00       	mov    $0x0,%eax
  400f51:	e8 4a f8 ff ff       	callq  4007a0 <printf@plt>
  400f56:	b8 00 00 00 00       	mov    $0x0,%eax
  400f5b:	e8 d7 f9 ff ff       	callq  400937 <reset>
  400f60:	c7 05 12 11 20 00 00 	movl   $0x0,0x201112(%rip)        # 60207c <check>
  400f67:	00 00 00 
  400f6a:	90                   	nop
  400f6b:	c9                   	leaveq 
  400f6c:	c3                   	retq   

0000000000400f6d <banner>:
  400f6d:	55                   	push   %rbp
  400f6e:	48 89 e5             	mov    %rsp,%rbp
  400f71:	48 83 ec 40          	sub    $0x40,%rsp
  400f75:	48 8d 05 9c 05 00 00 	lea    0x59c(%rip),%rax        # 401518 <_IO_stdin_used+0xb8>
  400f7c:	48 89 45 c0          	mov    %rax,-0x40(%rbp)
  400f80:	48 8d 05 99 05 00 00 	lea    0x599(%rip),%rax        # 401520 <_IO_stdin_used+0xc0>
  400f87:	48 89 45 c8          	mov    %rax,-0x38(%rbp)
  400f8b:	48 8d 05 96 05 00 00 	lea    0x596(%rip),%rax        # 401528 <_IO_stdin_used+0xc8>
  400f92:	48 89 45 d0          	mov    %rax,-0x30(%rbp)
  400f96:	48 8d 05 93 05 00 00 	lea    0x593(%rip),%rax        # 401530 <_IO_stdin_used+0xd0>
  400f9d:	48 89 45 d8          	mov    %rax,-0x28(%rbp)
  400fa1:	48 8d 05 90 05 00 00 	lea    0x590(%rip),%rax        # 401538 <_IO_stdin_used+0xd8>
  400fa8:	48 89 45 e0          	mov    %rax,-0x20(%rbp)
  400fac:	48 8d 05 8d 05 00 00 	lea    0x58d(%rip),%rax        # 401540 <_IO_stdin_used+0xe0>
  400fb3:	48 89 45 e8          	mov    %rax,-0x18(%rbp)
  400fb7:	bf 00 00 00 00       	mov    $0x0,%edi
  400fbc:	e8 3f f8 ff ff       	callq  400800 <time@plt>
  400fc1:	89 c7                	mov    %eax,%edi
  400fc3:	e8 18 f8 ff ff       	callq  4007e0 <srand@plt>
  400fc8:	48 8d 3d 79 05 00 00 	lea    0x579(%rip),%rdi        # 401548 <_IO_stdin_used+0xe8>
  400fcf:	b8 00 00 00 00       	mov    $0x0,%eax
  400fd4:	e8 76 f9 ff ff       	callq  40094f <rainbow>
  400fd9:	e8 62 f8 ff ff       	callq  400840 <rand@plt>
  400fde:	89 c2                	mov    %eax,%edx
  400fe0:	89 d0                	mov    %edx,%eax
  400fe2:	c1 f8 1f             	sar    $0x1f,%eax
  400fe5:	c1 e8 1e             	shr    $0x1e,%eax
  400fe8:	01 c2                	add    %eax,%edx
  400fea:	83 e2 03             	and    $0x3,%edx
  400fed:	29 c2                	sub    %eax,%edx
  400fef:	89 d0                	mov    %edx,%eax
  400ff1:	48 98                	cltq   
  400ff3:	48 8b 44 c5 c0       	mov    -0x40(%rbp,%rax,8),%rax
  400ff8:	48 89 c7             	mov    %rax,%rdi
  400ffb:	e8 80 f7 ff ff       	callq  400780 <puts@plt>
  401000:	48 8d 05 61 05 00 00 	lea    0x561(%rip),%rax        # 401568 <_IO_stdin_used+0x108>
  401007:	48 89 45 f8          	mov    %rax,-0x8(%rbp)
  40100b:	48 8b 45 f8          	mov    -0x8(%rbp),%rax
  40100f:	48 89 c7             	mov    %rax,%rdi
  401012:	b8 00 00 00 00       	mov    $0x0,%eax
  401017:	e8 33 f9 ff ff       	callq  40094f <rainbow>
  40101c:	48 8d 3d 45 04 00 00 	lea    0x445(%rip),%rdi        # 401468 <_IO_stdin_used+0x8>
  401023:	e8 58 f7 ff ff       	callq  400780 <puts@plt>
  401028:	90                   	nop
  401029:	c9                   	leaveq 
  40102a:	c3                   	retq   

000000000040102b <get_descr>:
  40102b:	55                   	push   %rbp
  40102c:	48 89 e5             	mov    %rsp,%rbp
  40102f:	48 83 ec 20          	sub    $0x20,%rsp
  401033:	48 8d 3d fe 05 00 00 	lea    0x5fe(%rip),%rdi        # 401638 <_IO_stdin_used+0x1d8>
  40103a:	b8 00 00 00 00       	mov    $0x0,%eax
  40103f:	e8 0b f9 ff ff       	callq  40094f <rainbow>
  401044:	48 8d 45 e0          	lea    -0x20(%rbp),%rax
  401048:	ba c0 03 00 00       	mov    $0x3c0,%edx
  40104d:	48 89 c6             	mov    %rax,%rsi
  401050:	bf 00 00 00 00       	mov    $0x0,%edi
  401055:	e8 76 f7 ff ff       	callq  4007d0 <read@plt>
  40105a:	48 8b 05 ff 0f 20 00 	mov    0x200fff(%rip),%rax        # 602060 <stdout@@GLIBC_2.2.5>
  401061:	48 89 c1             	mov    %rax,%rcx
  401064:	ba 47 00 00 00       	mov    $0x47,%edx
  401069:	be 01 00 00 00       	mov    $0x1,%esi
  40106e:	48 8d 3d 13 06 00 00 	lea    0x613(%rip),%rdi        # 401688 <_IO_stdin_used+0x228>
  401075:	e8 b6 f7 ff ff       	callq  400830 <fwrite@plt>
  40107a:	90                   	nop
  40107b:	c9                   	leaveq 
  40107c:	c3                   	retq   

000000000040107d <get_name>:
  40107d:	55                   	push   %rbp
  40107e:	48 89 e5             	mov    %rsp,%rbp
  401081:	53                   	push   %rbx
  401082:	48 83 ec 18          	sub    $0x18,%rsp
  401086:	c7 45 ec ff ff ff ff 	movl   $0xffffffff,-0x14(%rbp)
  40108d:	e9 d0 00 00 00       	jmpq   401162 <get_name+0xe5>
  401092:	ba 20 00 00 00       	mov    $0x20,%edx
  401097:	be 00 00 00 00       	mov    $0x0,%esi
  40109c:	48 8d 3d dd 0f 20 00 	lea    0x200fdd(%rip),%rdi        # 602080 <p>
  4010a3:	e8 08 f7 ff ff       	callq  4007b0 <memset@plt>
  4010a8:	48 8d 3d 21 06 00 00 	lea    0x621(%rip),%rdi        # 4016d0 <_IO_stdin_used+0x270>
  4010af:	b8 00 00 00 00       	mov    $0x0,%eax
  4010b4:	e8 96 f8 ff ff       	callq  40094f <rainbow>
  4010b9:	ba 1f 00 00 00       	mov    $0x1f,%edx
  4010be:	48 8d 35 bb 0f 20 00 	lea    0x200fbb(%rip),%rsi        # 602080 <p>
  4010c5:	bf 00 00 00 00       	mov    $0x0,%edi
  4010ca:	e8 01 f7 ff ff       	callq  4007d0 <read@plt>
  4010cf:	c7 45 e8 00 00 00 00 	movl   $0x0,-0x18(%rbp)
  4010d6:	eb 6b                	jmp    401143 <get_name+0xc6>
  4010d8:	8b 45 e8             	mov    -0x18(%rbp),%eax
  4010db:	48 63 d0             	movslq %eax,%rdx
  4010de:	48 8d 05 9b 0f 20 00 	lea    0x200f9b(%rip),%rax        # 602080 <p>
  4010e5:	0f b6 04 02          	movzbl (%rdx,%rax,1),%eax
  4010e9:	0f be c0             	movsbl %al,%eax
  4010ec:	89 c7                	mov    %eax,%edi
  4010ee:	e8 7d f6 ff ff       	callq  400770 <toupper@plt>
  4010f3:	89 c1                	mov    %eax,%ecx
  4010f5:	8b 45 e8             	mov    -0x18(%rbp),%eax
  4010f8:	48 63 d0             	movslq %eax,%rdx
  4010fb:	48 8d 05 7e 0f 20 00 	lea    0x200f7e(%rip),%rax        # 602080 <p>
  401102:	88 0c 02             	mov    %cl,(%rdx,%rax,1)
  401105:	8b 45 e8             	mov    -0x18(%rbp),%eax
  401108:	48 63 d0             	movslq %eax,%rdx
  40110b:	48 8d 05 6e 0f 20 00 	lea    0x200f6e(%rip),%rax        # 602080 <p>
  401112:	0f b6 04 02          	movzbl (%rdx,%rax,1),%eax
  401116:	3c 40                	cmp    $0x40,%al
  401118:	7e 15                	jle    40112f <get_name+0xb2>
  40111a:	8b 45 e8             	mov    -0x18(%rbp),%eax
  40111d:	48 63 d0             	movslq %eax,%rdx
  401120:	48 8d 05 59 0f 20 00 	lea    0x200f59(%rip),%rax        # 602080 <p>
  401127:	0f b6 04 02          	movzbl (%rdx,%rax,1),%eax
  40112b:	3c 5a                	cmp    $0x5a,%al
  40112d:	7e 09                	jle    401138 <get_name+0xbb>
  40112f:	c7 45 ec ff ff ff ff 	movl   $0xffffffff,-0x14(%rbp)
  401136:	eb 2a                	jmp    401162 <get_name+0xe5>
  401138:	c7 45 ec 01 00 00 00 	movl   $0x1,-0x14(%rbp)
  40113f:	83 45 e8 01          	addl   $0x1,-0x18(%rbp)
  401143:	8b 45 e8             	mov    -0x18(%rbp),%eax
  401146:	48 63 d8             	movslq %eax,%rbx
  401149:	48 8d 3d 30 0f 20 00 	lea    0x200f30(%rip),%rdi        # 602080 <p>
  401150:	e8 3b f6 ff ff       	callq  400790 <strlen@plt>
  401155:	48 83 e8 01          	sub    $0x1,%rax
  401159:	48 39 c3             	cmp    %rax,%rbx
  40115c:	0f 82 76 ff ff ff    	jb     4010d8 <get_name+0x5b>
  401162:	83 7d ec ff          	cmpl   $0xffffffff,-0x14(%rbp)
  401166:	0f 84 26 ff ff ff    	je     401092 <get_name+0x15>
  40116c:	8b 45 e8             	mov    -0x18(%rbp),%eax
  40116f:	48 63 d0             	movslq %eax,%rdx
  401172:	48 8d 05 07 0f 20 00 	lea    0x200f07(%rip),%rax        # 602080 <p>
  401179:	c6 04 02 00          	movb   $0x0,(%rdx,%rax,1)
  40117d:	90                   	nop
  40117e:	48 83 c4 18          	add    $0x18,%rsp
  401182:	5b                   	pop    %rbx
  401183:	5d                   	pop    %rbp
  401184:	c3                   	retq   

0000000000401185 <get_surname>:
  401185:	55                   	push   %rbp
  401186:	48 89 e5             	mov    %rsp,%rbp
  401189:	53                   	push   %rbx
  40118a:	48 83 ec 18          	sub    $0x18,%rsp
  40118e:	c7 45 ec ff ff ff ff 	movl   $0xffffffff,-0x14(%rbp)
  401195:	e9 d0 00 00 00       	jmpq   40126a <get_surname+0xe5>
  40119a:	ba 20 00 00 00       	mov    $0x20,%edx
  40119f:	be 00 00 00 00       	mov    $0x0,%esi
  4011a4:	48 8d 3d f5 0e 20 00 	lea    0x200ef5(%rip),%rdi        # 6020a0 <p+0x20>
  4011ab:	e8 00 f6 ff ff       	callq  4007b0 <memset@plt>
  4011b0:	48 8d 3d 41 05 00 00 	lea    0x541(%rip),%rdi        # 4016f8 <_IO_stdin_used+0x298>
  4011b7:	b8 00 00 00 00       	mov    $0x0,%eax
  4011bc:	e8 8e f7 ff ff       	callq  40094f <rainbow>
  4011c1:	ba 1f 00 00 00       	mov    $0x1f,%edx
  4011c6:	48 8d 35 d3 0e 20 00 	lea    0x200ed3(%rip),%rsi        # 6020a0 <p+0x20>
  4011cd:	bf 00 00 00 00       	mov    $0x0,%edi
  4011d2:	e8 f9 f5 ff ff       	callq  4007d0 <read@plt>
  4011d7:	c7 45 e8 00 00 00 00 	movl   $0x0,-0x18(%rbp)
  4011de:	eb 6b                	jmp    40124b <get_surname+0xc6>
  4011e0:	8b 45 e8             	mov    -0x18(%rbp),%eax
  4011e3:	48 63 d0             	movslq %eax,%rdx
  4011e6:	48 8d 05 b3 0e 20 00 	lea    0x200eb3(%rip),%rax        # 6020a0 <p+0x20>
  4011ed:	0f b6 04 02          	movzbl (%rdx,%rax,1),%eax
  4011f1:	0f be c0             	movsbl %al,%eax
  4011f4:	89 c7                	mov    %eax,%edi
  4011f6:	e8 75 f5 ff ff       	callq  400770 <toupper@plt>
  4011fb:	89 c1                	mov    %eax,%ecx
  4011fd:	8b 45 e8             	mov    -0x18(%rbp),%eax
  401200:	48 63 d0             	movslq %eax,%rdx
  401203:	48 8d 05 96 0e 20 00 	lea    0x200e96(%rip),%rax        # 6020a0 <p+0x20>
  40120a:	88 0c 02             	mov    %cl,(%rdx,%rax,1)
  40120d:	8b 45 e8             	mov    -0x18(%rbp),%eax
  401210:	48 63 d0             	movslq %eax,%rdx
  401213:	48 8d 05 86 0e 20 00 	lea    0x200e86(%rip),%rax        # 6020a0 <p+0x20>
  40121a:	0f b6 04 02          	movzbl (%rdx,%rax,1),%eax
  40121e:	3c 40                	cmp    $0x40,%al
  401220:	7e 15                	jle    401237 <get_surname+0xb2>
  401222:	8b 45 e8             	mov    -0x18(%rbp),%eax
  401225:	48 63 d0             	movslq %eax,%rdx
  401228:	48 8d 05 71 0e 20 00 	lea    0x200e71(%rip),%rax        # 6020a0 <p+0x20>
  40122f:	0f b6 04 02          	movzbl (%rdx,%rax,1),%eax
  401233:	3c 5a                	cmp    $0x5a,%al
  401235:	7e 09                	jle    401240 <get_surname+0xbb>
  401237:	c7 45 ec ff ff ff ff 	movl   $0xffffffff,-0x14(%rbp)
  40123e:	eb 2a                	jmp    40126a <get_surname+0xe5>
  401240:	c7 45 ec 01 00 00 00 	movl   $0x1,-0x14(%rbp)
  401247:	83 45 e8 01          	addl   $0x1,-0x18(%rbp)
  40124b:	8b 45 e8             	mov    -0x18(%rbp),%eax
  40124e:	48 63 d8             	movslq %eax,%rbx
  401251:	48 8d 3d 48 0e 20 00 	lea    0x200e48(%rip),%rdi        # 6020a0 <p+0x20>
  401258:	e8 33 f5 ff ff       	callq  400790 <strlen@plt>
  40125d:	48 83 e8 01          	sub    $0x1,%rax
  401261:	48 39 c3             	cmp    %rax,%rbx
  401264:	0f 82 76 ff ff ff    	jb     4011e0 <get_surname+0x5b>
  40126a:	83 7d ec ff          	cmpl   $0xffffffff,-0x14(%rbp)
  40126e:	0f 84 26 ff ff ff    	je     40119a <get_surname+0x15>
  401274:	8b 45 e8             	mov    -0x18(%rbp),%eax
  401277:	48 63 d0             	movslq %eax,%rdx
  40127a:	48 8d 05 1f 0e 20 00 	lea    0x200e1f(%rip),%rax        # 6020a0 <p+0x20>
  401281:	c6 04 02 00          	movb   $0x0,(%rdx,%rax,1)
  401285:	90                   	nop
  401286:	48 83 c4 18          	add    $0x18,%rsp
  40128a:	5b                   	pop    %rbx
  40128b:	5d                   	pop    %rbp
  40128c:	c3                   	retq   

000000000040128d <get_age>:
  40128d:	55                   	push   %rbp
  40128e:	48 89 e5             	mov    %rsp,%rbp
  401291:	c7 05 25 0e 20 00 ff 	movl   $0xffffffff,0x200e25(%rip)        # 6020c0 <p+0x40>
  401298:	ff ff ff 
  40129b:	eb 29                	jmp    4012c6 <get_age+0x39>
  40129d:	48 8d 3d 7c 04 00 00 	lea    0x47c(%rip),%rdi        # 401720 <_IO_stdin_used+0x2c0>
  4012a4:	b8 00 00 00 00       	mov    $0x0,%eax
  4012a9:	e8 a1 f6 ff ff       	callq  40094f <rainbow>
  4012ae:	48 8d 35 0b 0e 20 00 	lea    0x200e0b(%rip),%rsi        # 6020c0 <p+0x40>
  4012b5:	48 8d 3d 82 04 00 00 	lea    0x482(%rip),%rdi        # 40173e <_IO_stdin_used+0x2de>
  4012bc:	b8 00 00 00 00       	mov    $0x0,%eax
  4012c1:	e8 5a f5 ff ff       	callq  400820 <__isoc99_scanf@plt>
  4012c6:	8b 05 f4 0d 20 00    	mov    0x200df4(%rip),%eax        # 6020c0 <p+0x40>
  4012cc:	83 f8 11             	cmp    $0x11,%eax
  4012cf:	7e cc                	jle    40129d <get_age+0x10>
  4012d1:	8b 05 e9 0d 20 00    	mov    0x200de9(%rip),%eax        # 6020c0 <p+0x40>
  4012d7:	83 f8 78             	cmp    $0x78,%eax
  4012da:	7f c1                	jg     40129d <get_age+0x10>
  4012dc:	90                   	nop
  4012dd:	5d                   	pop    %rbp
  4012de:	c3                   	retq   

00000000004012df <display>:
  4012df:	55                   	push   %rbp
  4012e0:	48 89 e5             	mov    %rsp,%rbp
  4012e3:	48 8d 3d 57 04 00 00 	lea    0x457(%rip),%rdi        # 401741 <_IO_stdin_used+0x2e1>
  4012ea:	b8 00 00 00 00       	mov    $0x0,%eax
  4012ef:	e8 5b f6 ff ff       	callq  40094f <rainbow>
  4012f4:	48 8d 35 85 0d 20 00 	lea    0x200d85(%rip),%rsi        # 602080 <p>
  4012fb:	48 8d 3d 4e 04 00 00 	lea    0x44e(%rip),%rdi        # 401750 <_IO_stdin_used+0x2f0>
  401302:	b8 00 00 00 00       	mov    $0x0,%eax
  401307:	e8 94 f4 ff ff       	callq  4007a0 <printf@plt>
  40130c:	48 8d 3d 43 04 00 00 	lea    0x443(%rip),%rdi        # 401756 <_IO_stdin_used+0x2f6>
  401313:	b8 00 00 00 00       	mov    $0x0,%eax
  401318:	e8 32 f6 ff ff       	callq  40094f <rainbow>
  40131d:	48 8d 35 7c 0d 20 00 	lea    0x200d7c(%rip),%rsi        # 6020a0 <p+0x20>
  401324:	48 8d 3d 25 04 00 00 	lea    0x425(%rip),%rdi        # 401750 <_IO_stdin_used+0x2f0>
  40132b:	b8 00 00 00 00       	mov    $0x0,%eax
  401330:	e8 6b f4 ff ff       	callq  4007a0 <printf@plt>
  401335:	48 8d 3d 28 04 00 00 	lea    0x428(%rip),%rdi        # 401764 <_IO_stdin_used+0x304>
  40133c:	b8 00 00 00 00       	mov    $0x0,%eax
  401341:	e8 09 f6 ff ff       	callq  40094f <rainbow>
  401346:	8b 05 74 0d 20 00    	mov    0x200d74(%rip),%eax        # 6020c0 <p+0x40>
  40134c:	89 c6                	mov    %eax,%esi
  40134e:	48 8d 3d 1d 04 00 00 	lea    0x41d(%rip),%rdi        # 401772 <_IO_stdin_used+0x312>
  401355:	b8 00 00 00 00       	mov    $0x0,%eax
  40135a:	e8 41 f4 ff ff       	callq  4007a0 <printf@plt>
  40135f:	90                   	nop
  401360:	5d                   	pop    %rbp
  401361:	c3                   	retq   

0000000000401362 <setup>:
  401362:	55                   	push   %rbp
  401363:	48 89 e5             	mov    %rsp,%rbp
  401366:	48 8b 05 03 0d 20 00 	mov    0x200d03(%rip),%rax        # 602070 <stdin@@GLIBC_2.2.5>
  40136d:	b9 00 00 00 00       	mov    $0x0,%ecx
  401372:	ba 02 00 00 00       	mov    $0x2,%edx
  401377:	be 00 00 00 00       	mov    $0x0,%esi
  40137c:	48 89 c7             	mov    %rax,%rdi
  40137f:	e8 8c f4 ff ff       	callq  400810 <setvbuf@plt>
  401384:	48 8b 05 d5 0c 20 00 	mov    0x200cd5(%rip),%rax        # 602060 <stdout@@GLIBC_2.2.5>
  40138b:	b9 00 00 00 00       	mov    $0x0,%ecx
  401390:	ba 02 00 00 00       	mov    $0x2,%edx
  401395:	be 00 00 00 00       	mov    $0x0,%esi
  40139a:	48 89 c7             	mov    %rax,%rdi
  40139d:	e8 6e f4 ff ff       	callq  400810 <setvbuf@plt>
  4013a2:	bf 7f 00 00 00       	mov    $0x7f,%edi
  4013a7:	e8 14 f4 ff ff       	callq  4007c0 <abs@plt>
  4013ac:	90                   	nop
  4013ad:	5d                   	pop    %rbp
  4013ae:	c3                   	retq   

00000000004013af <main>:
  4013af:	55                   	push   %rbp
  4013b0:	48 89 e5             	mov    %rsp,%rbp
  4013b3:	e8 aa ff ff ff       	callq  401362 <setup>
  4013b8:	e8 b0 fb ff ff       	callq  400f6d <banner>
  4013bd:	e8 bb fc ff ff       	callq  40107d <get_name>
  4013c2:	e8 be fd ff ff       	callq  401185 <get_surname>
  4013c7:	e8 c1 fe ff ff       	callq  40128d <get_age>
  4013cc:	e8 0e ff ff ff       	callq  4012df <display>
  4013d1:	e8 55 fc ff ff       	callq  40102b <get_descr>
  4013d6:	b8 00 00 00 00       	mov    $0x0,%eax
  4013db:	5d                   	pop    %rbp
  4013dc:	c3                   	retq   
  4013dd:	0f 1f 00             	nopl   (%rax)

00000000004013e0 <__libc_csu_init>:
  4013e0:	41 57                	push   %r15
  4013e2:	41 56                	push   %r14
  4013e4:	49 89 d7             	mov    %rdx,%r15
  4013e7:	41 55                	push   %r13
  4013e9:	41 54                	push   %r12
  4013eb:	4c 8d 25 76 09 20 00 	lea    0x200976(%rip),%r12        # 601d68 <__frame_dummy_init_array_entry>
  4013f2:	55                   	push   %rbp
  4013f3:	48 8d 2d 76 09 20 00 	lea    0x200976(%rip),%rbp        # 601d70 <__init_array_end>
  4013fa:	53                   	push   %rbx
  4013fb:	41 89 fd             	mov    %edi,%r13d
  4013fe:	49 89 f6             	mov    %rsi,%r14
  401401:	4c 29 e5             	sub    %r12,%rbp
  401404:	48 83 ec 08          	sub    $0x8,%rsp
  401408:	48 c1 fd 03          	sar    $0x3,%rbp
  40140c:	e8 2f f3 ff ff       	callq  400740 <_init>
  401411:	48 85 ed             	test   %rbp,%rbp
  401414:	74 20                	je     401436 <__libc_csu_init+0x56>
  401416:	31 db                	xor    %ebx,%ebx
  401418:	0f 1f 84 00 00 00 00 	nopl   0x0(%rax,%rax,1)
  40141f:	00 
  401420:	4c 89 fa             	mov    %r15,%rdx
  401423:	4c 89 f6             	mov    %r14,%rsi
  401426:	44 89 ef             	mov    %r13d,%edi
  401429:	41 ff 14 dc          	callq  *(%r12,%rbx,8)
  40142d:	48 83 c3 01          	add    $0x1,%rbx
  401431:	48 39 dd             	cmp    %rbx,%rbp
  401434:	75 ea                	jne    401420 <__libc_csu_init+0x40>
  401436:	48 83 c4 08          	add    $0x8,%rsp
  40143a:	5b                   	pop    %rbx
  40143b:	5d                   	pop    %rbp
  40143c:	41 5c                	pop    %r12
  40143e:	41 5d                	pop    %r13
  401440:	41 5e                	pop    %r14
  401442:	41 5f                	pop    %r15
  401444:	c3                   	retq   
  401445:	90                   	nop
  401446:	66 2e 0f 1f 84 00 00 	nopw   %cs:0x0(%rax,%rax,1)
  40144d:	00 00 00 

0000000000401450 <__libc_csu_fini>:
  401450:	f3 c3                	repz retq 

Disassembly of section .fini:

0000000000401454 <_fini>:
  401454:	48 83 ec 08          	sub    $0x8,%rsp
  401458:	48 83 c4 08          	add    $0x8,%rsp
  40145c:	c3                   	retq   
